; Function Attrs: mustprogress nofree norecurse nosync nounwind willreturn memory(argmem: readwrite) uwtable
define internal range(i32 -1, 60) i32 @notation4(ptr noundef captures(none) %0, i32 noundef %1, ptr readnone captures(none) %2, ptr readnone captures(none) %3, ptr readnone captures(none) %4) #2 {
  switch i32 %1, label %12 [
    i32 15, label %common.exit
    i32 27, label %6
    i32 17, label %8
  ]

6:                                                ; preds = %5
  store ptr @declClose, ptr %0, align 8, !tbaa !3
  %7 = getelementptr inbounds nuw i8, ptr %0, i64 12
  store i32 17, ptr %7, align 4, !tbaa !15
  br label %common.exit

8:                                                ; preds = %5
  %9 = getelementptr inbounds nuw i8, ptr %0, i64 20
  %10 = load i32, ptr %9, align 4, !tbaa !9
  %.not = icmp eq i32 %10, 0
  %11 = select i1 %.not, ptr @externalSubset1, ptr @internalSubset
  store ptr %11, ptr %0, align 8, !tbaa !3
  br label %common.exit

12:                                               ; preds = %5
  %13 = getelementptr inbounds nuw i8, ptr %0, i64 20
  %14 = load i32, ptr %13, align 4, !tbaa !9
  %15 = icmp eq i32 %14, 0
  %16 = icmp eq i32 %1, 28
  %or.cond.i = and i1 %16, %15
  br i1 %or.cond.i, label %common.exit, label %17

17:                                               ; preds = %12
  store ptr @error, ptr %0, align 8, !tbaa !3
  br label %common.exit

common.exit:                                      ; preds = %17, %12, %5, %8, %6
  %.0 = phi i32 [ 20, %8 ], [ 19, %6 ], [ 17, %5 ], [ -1, %17 ], [ 59, %12 ]
  ret i32 %.0
}